; Function Attrs: nounwind uwtable
define ptr @l_Std_Time_HourMarker_toAbsolute(i8 noundef zeroext %0, ptr noundef %1) local_unnamed_addr #1 {
  %3 = icmp eq i8 %0, 0
  %4 = load ptr, ptr @l_Std_Time_HourMarker_ofOrdinal___closed__1, align 8, !tbaa !10
  %5 = ptrtoint ptr %1 to i64
  %6 = ptrtoint ptr %4 to i64
  %7 = and i64 %5, 1
  %8 = and i64 %7, %6
  %or.cond.not.i.i = icmp eq i64 %8, 0
  br i1 %3, label %9, label %22

9:                                                ; preds = %2
  br i1 %or.cond.not.i.i, label %lean_int_dec_eq.exit, label %10, !prof !16

10:                                               ; preds = %9
  %11 = icmp eq ptr %1, %4
  br i1 %11, label %20, label %13

lean_int_dec_eq.exit:                             ; preds = %9
  %12 = tail call zeroext i1 @lean_int_big_eq(ptr noundef %1, ptr noundef %4) #7
  br i1 %12, label %20, label %13

13:                                               ; preds = %10, %lean_int_dec_eq.exit
  %.not = icmp eq i64 %7, 0
  br i1 %.not, label %14, label %lean_inc.exit

14:                                               ; preds = %13
  %.val.i = load i32, ptr %1, align 4, !tbaa !4
  %15 = icmp sgt i32 %.val.i, 0
  br i1 %15, label %16, label %18, !prof !9

16:                                               ; preds = %14
  %17 = add nuw i32 %.val.i, 1
  store i32 %17, ptr %1, align 4, !tbaa !4
  br label %lean_inc.exit

18:                                               ; preds = %14
  %.not.i17 = icmp eq i32 %.val.i, 0
  br i1 %.not.i17, label %lean_inc.exit, label %19

19:                                               ; preds = %18
  tail call void @lean_inc_ref_cold(ptr noundef nonnull %1) #7
  br label %lean_inc.exit

20:                                               ; preds = %10, %lean_int_dec_eq.exit
  %21 = load ptr, ptr @l_Std_Time_HourMarker_toAbsolute___closed__10, align 8, !tbaa !10
  br label %lean_inc.exit

22:                                               ; preds = %2
  br i1 %or.cond.not.i.i, label %lean_int_dec_eq.exit21, label %23, !prof !16

23:                                               ; preds = %22
  %24 = icmp eq ptr %1, %4
  br i1 %24, label %76, label %26

lean_int_dec_eq.exit21:                           ; preds = %22
  %25 = tail call zeroext i1 @lean_int_big_eq(ptr noundef %1, ptr noundef %4) #7
  br i1 %25, label %76, label %.critedge.i

26:                                               ; preds = %23
  %27 = shl i64 %5, 31
  %28 = ashr i64 %27, 32
  %29 = shl i64 %6, 31
  %30 = ashr i64 %29, 32
  %31 = add nsw i64 %30, %28
  %32 = add nsw i64 %31, 2147483648
  %33 = icmp ult i64 %32, 4294967296
  br i1 %33, label %34, label %39, !prof !9

34:                                               ; preds = %26
  %35 = shl nsw i64 %31, 1
  %36 = and i64 %35, 8589934590
  %37 = or disjoint i64 %36, 1
  %38 = inttoptr i64 %37 to ptr
  br label %lean_int_add.exit

39:                                               ; preds = %26
  %40 = tail call ptr @lean_big_int64_to_int(i64 noundef range(i64 -4294967296, 4294967296) %31) #7
  br label %lean_int_add.exit

.critedge.i:                                      ; preds = %lean_int_dec_eq.exit21
  %41 = tail call ptr @lean_int_big_add(ptr noundef %1, ptr noundef %4) #7
  br label %lean_int_add.exit

lean_int_add.exit:                                ; preds = %34, %39, %.critedge.i
  %.0.i = phi ptr [ %41, %.critedge.i ], [ %38, %34 ], [ %40, %39 ]
  %42 = load ptr, ptr @l_Std_Time_HourMarker_toAbsolute___closed__11, align 8, !tbaa !10
  %43 = ptrtoint ptr %.0.i to i64
  %44 = and i64 %43, 1
  %.not.i23 = icmp eq i64 %44, 0
  br i1 %.not.i23, label %68, label %45, !prof !15

45:                                               ; preds = %lean_int_add.exit
  %46 = ptrtoint ptr %42 to i64
  %47 = and i64 %46, 1
  %.not21.i = icmp eq i64 %47, 0
  br i1 %.not21.i, label %lean_int_emod.exit.thread28, label %49, !prof !15

lean_int_emod.exit.thread28:                      ; preds = %45
  %48 = tail call ptr @lean_int_big_emod(ptr noundef %.0.i, ptr noundef %42) #7
  br label %lean_inc.exit

49:                                               ; preds = %45
  %50 = shl i64 %46, 31
  %51 = icmp ult i64 %50, 4294967296
  br i1 %51, label %lean_inc.exit, label %52

52:                                               ; preds = %49
  %53 = ashr i64 %50, 32
  %54 = shl i64 %43, 31
  %55 = ashr i64 %54, 32
  %56 = srem i64 %55, %53
  %57 = icmp slt i64 %56, 0
  %.p.i = tail call i64 @llvm.abs.i64(i64 %53, i1 true)
  %58 = select i1 %57, i64 %.p.i, i64 0
  %.0.i24 = add nsw i64 %58, %56
  %59 = add nsw i64 %.0.i24, 2147483648
  %60 = icmp samesign ult i64 %59, 4294967296
  br i1 %60, label %61, label %66, !prof !9

61:                                               ; preds = %52
  %62 = shl nsw i64 %.0.i24, 1
  %63 = and i64 %62, 8589934590
  %64 = or disjoint i64 %63, 1
  %65 = inttoptr i64 %64 to ptr
  br label %lean_inc.exit

66:                                               ; preds = %52
  %67 = tail call ptr @lean_big_int64_to_int(i64 noundef range(i64 -4294967296, 4294967296) %.0.i24) #7
  br label %lean_inc.exit

68:                                               ; preds = %lean_int_add.exit
  %69 = tail call ptr @lean_int_big_emod(ptr noundef %.0.i, ptr noundef %42) #7
  %70 = load i32, ptr %.0.i, align 4, !tbaa !4
  %71 = icmp sgt i32 %70, 1
  br i1 %71, label %72, label %74, !prof !9

72:                                               ; preds = %68
  %73 = add nsw i32 %70, -1
  store i32 %73, ptr %.0.i, align 4, !tbaa !4
  br label %lean_inc.exit

74:                                               ; preds = %68
  %.not.i = icmp eq i32 %70, 0
  br i1 %.not.i, label %lean_inc.exit, label %75

75:                                               ; preds = %74
  tail call void @lean_dec_ref_cold(ptr noundef nonnull %.0.i) #7
  br label %lean_inc.exit

76:                                               ; preds = %23, %lean_int_dec_eq.exit21
  %77 = load ptr, ptr @l_Std_Time_HourMarker_toAbsolute___closed__16, align 8, !tbaa !10
  br label %lean_inc.exit

lean_inc.exit:                                    ; preds = %66, %61, %49, %lean_int_emod.exit.thread28, %72, %74, %75, %13, %16, %18, %19, %76, %20
  %.1 = phi ptr [ %21, %20 ], [ %77, %76 ], [ %1, %19 ], [ %1, %18 ], [ %1, %16 ], [ %1, %13 ], [ %48, %lean_int_emod.exit.thread28 ], [ %69, %72 ], [ %69, %74 ], [ %69, %75 ], [ %67, %66 ], [ %65, %61 ], [ %.0.i, %49 ]
  ret ptr %.1
}